; Function Attrs: nounwind uwtable
define internal range(i32 0, 2) i32 @test_property_parse(i32 noundef %0) #0 {
  %2 = tail call ptr @ossl_method_store_new(ptr noundef null) #6
  %3 = tail call i32 @test_ptr(ptr noundef nonnull @.str.12, i32 noundef 156, ptr noundef nonnull @.str.70, ptr noundef %2) #6
  %.not = icmp eq i32 %3, 0
  br i1 %.not, label %22, label %4

4:                                                ; preds = %1
  %5 = tail call i32 (ptr, ...) @add_property_names(ptr noundef nonnull @.str.81, ptr noundef nonnull @.str.82, ptr noundef nonnull @.str.69, ptr noundef nonnull @.str.83, ptr noundef nonnull @.str.84, ptr noundef nonnull @.str.85, ptr noundef null)
  %.not10 = icmp eq i32 %5, 0
  br i1 %.not10, label %22, label %6

6:                                                ; preds = %4
  %7 = sext i32 %0 to i64
  %8 = getelementptr inbounds [34 x %struct.anon], ptr @parser_tests, i64 0, i64 %7
  %9 = load ptr, ptr %8, align 8, !tbaa !4
  %10 = tail call ptr @ossl_parse_property(ptr noundef null, ptr noundef %9) #6
  %11 = tail call i32 @test_ptr(ptr noundef nonnull @.str.12, i32 noundef 159, ptr noundef nonnull @.str.86, ptr noundef %10) #6
  %.not11 = icmp eq i32 %11, 0
  br i1 %.not11, label %22, label %12

12:                                               ; preds = %6
  %13 = getelementptr inbounds nuw i8, ptr %8, i64 8
  %14 = load ptr, ptr %13, align 8, !tbaa !11
  %15 = tail call ptr @ossl_parse_query(ptr noundef null, ptr noundef %14, i32 noundef 0) #6
  %16 = tail call i32 @test_ptr(ptr noundef nonnull @.str.12, i32 noundef 160, ptr noundef nonnull @.str.87, ptr noundef %15) #6
  %.not12 = icmp eq i32 %16, 0
  br i1 %.not12, label %22, label %17

17:                                               ; preds = %12
  %18 = tail call i32 @ossl_property_match_count(ptr noundef %15, ptr noundef %10) #6
  %19 = getelementptr inbounds nuw i8, ptr %8, i64 16
  %20 = load i32, ptr %19, align 8, !tbaa !12
  %21 = tail call i32 @test_int_eq(ptr noundef nonnull @.str.12, i32 noundef 161, ptr noundef nonnull @.str.76, ptr noundef nonnull @.str.88, i32 noundef %18, i32 noundef %20) #6
  %.not13 = icmp ne i32 %21, 0
  %spec.select = zext i1 %.not13 to i32
  br label %22

22:                                               ; preds = %17, %12, %6, %4, %1
  %.09 = phi ptr [ %10, %12 ], [ %10, %6 ], [ null, %4 ], [ null, %1 ], [ %10, %17 ]
  %.08 = phi ptr [ %15, %12 ], [ null, %6 ], [ null, %4 ], [ null, %1 ], [ %15, %17 ]
  %.0 = phi i32 [ 0, %12 ], [ 0, %6 ], [ 0, %4 ], [ 0, %1 ], [ %spec.select, %17 ]
  tail call void @ossl_property_free(ptr noundef %.09) #6
  tail call void @ossl_property_free(ptr noundef %.08) #6
  tail call void @ossl_method_store_free(ptr noundef %2) #6
  ret i32 %.0
}